target datalayout = "e-m:e-p270:32:32-p271:32:32-p272:64:64-i64:64-f80:128-n8:16:32:64-S128"
target triple = "x86_64-pc-linux-gnu"

@.str = private unnamed_addr constant [3 x i8] c"%d\00", align 1
@.str.1 = private unnamed_addr constant [3 x i8] c"%s\00", align 1
@.str.2 = private unnamed_addr constant [4 x i8] c"NO\0A\00", align 1
@.str.3 = private unnamed_addr constant [4 x i8] c"%d\0A\00", align 1
@.str.4 = private unnamed_addr constant [4 x i8] c"%s\0A\00", align 1

; Function Attrs: noinline nounwind uwtable
define dso_local i32 @main() #0 {
  %1 = alloca i32, align 4
  %2 = alloca i32, align 4
  %3 = alloca i32, align 4
  %4 = alloca i32, align 4
  %5 = alloca i32, align 4
  %6 = alloca i32, align 4
  %7 = alloca [501 x i8], align 16
  %8 = alloca [501 x [5 x i8]], align 16
  %9 = alloca [501 x i32], align 16
  store i32 0, i32* %1, align 4
  store i32 0, i32* %6, align 4
  %10 = bitcast [501 x i32]* %9 to i8*
  call void @llvm.memset.p0i8.i64(i8* align 16 %10, i8 0, i64 2004, i1 false)
  %11 = call i32 (i8*, ...) @__isoc99_scanf(i8* getelementptr inbounds ([3 x i8], [3 x i8]* @.str, i64 0, i64 0), i32* %5)
  %12 = getelementptr inbounds [501 x i8], [501 x i8]* %7, i64 0, i64 0
  %13 = call i32 (i8*, ...) @__isoc99_scanf(i8* getelementptr inbounds ([3 x i8], [3 x i8]* @.str.1, i64 0, i64 0), i8* %12)
  %14 = getelementptr inbounds [501 x i8], [501 x i8]* %7, i64 0, i64 0
  %15 = call i64 @strlen(i8* %14) #4
  %16 = trunc i64 %15 to i32
  store i32 %16, i32* %2, align 4
  store i32 0, i32* %3, align 4
  br label %17

17:                                               ; preds = %57, %0
  %18 = load i32, i32* %3, align 4
  %19 = load i32, i32* %2, align 4
  %20 = load i32, i32* %5, align 4
  %21 = sub nsw i32 %19, %20
  %22 = icmp sle i32 %18, %21
  br i1 %22, label %23, label %60

23:                                               ; preds = %17
  store i32 0, i32* %4, align 4
  br label %24

24:                                               ; preds = %45, %23
  %25 = load i32, i32* %4, align 4
  %26 = load i32, i32* %5, align 4
  %27 = icmp slt i32 %25, %26
  br i1 %27, label %28, label %48

28:                                               ; preds = %24
  %29 = getelementptr inbounds [501 x i8], [501 x i8]* %7, i64 0, i64 0
  %30 = load i32, i32* %3, align 4
  %31 = sext i32 %30 to i64
  %32 = getelementptr inbounds i8, i8* %29, i64 %31
  %33 = load i32, i32* %4, align 4
  %34 = sext i32 %33 to i64
  %35 = getelementptr inbounds i8, i8* %32, i64 %34
  %36 = load i8, i8* %35, align 1
  %37 = getelementptr inbounds [501 x [5 x i8]], [501 x [5 x i8]]* %8, i64 0, i64 0
  %38 = load i32, i32* %3, align 4
  %39 = sext i32 %38 to i64
  %40 = getelementptr inbounds [5 x i8], [5 x i8]* %37, i64 %39
  %41 = getelementptr inbounds [5 x i8], [5 x i8]* %40, i64 0, i64 0
  %42 = load i32, i32* %4, align 4
  %43 = sext i32 %42 to i64
  %44 = getelementptr inbounds i8, i8* %41, i64 %43
  store i8 %36, i8* %44, align 1
  br label %45

45:                                               ; preds = %28
  %46 = load i32, i32* %4, align 4
  %47 = add nsw i32 %46, 1
  store i32 %47, i32* %4, align 4
  br label %24

48:                                               ; preds = %24
  %49 = getelementptr inbounds [501 x [5 x i8]], [501 x [5 x i8]]* %8, i64 0, i64 0
  %50 = load i32, i32* %3, align 4
  %51 = sext i32 %50 to i64
  %52 = getelementptr inbounds [5 x i8], [5 x i8]* %49, i64 %51
  %53 = getelementptr inbounds [5 x i8], [5 x i8]* %52, i64 0, i64 0
  %54 = load i32, i32* %4, align 4
  %55 = sext i32 %54 to i64
  %56 = getelementptr inbounds i8, i8* %53, i64 %55
  store i8 0, i8* %56, align 1
  br label %57

57:                                               ; preds = %48
  %58 = load i32, i32* %3, align 4
  %59 = add nsw i32 %58, 1
  store i32 %59, i32* %3, align 4
  br label %17

60:                                               ; preds = %17
  store i32 0, i32* %3, align 4
  br label %61

61:                                               ; preds = %99, %60
  %62 = load i32, i32* %3, align 4
  %63 = load i32, i32* %2, align 4
  %64 = load i32, i32* %5, align 4
  %65 = sub nsw i32 %63, %64
  %66 = icmp sle i32 %62, %65
  br i1 %66, label %67, label %102

67:                                               ; preds = %61
  store i32 0, i32* %4, align 4
  br label %68

68:                                               ; preds = %95, %67
  %69 = load i32, i32* %4, align 4
  %70 = load i32, i32* %2, align 4
  %71 = load i32, i32* %5, align 4
  %72 = sub nsw i32 %70, %71
  %73 = icmp sle i32 %69, %72
  br i1 %73, label %74, label %98

74:                                               ; preds = %68
  %75 = getelementptr inbounds [501 x [5 x i8]], [501 x [5 x i8]]* %8, i64 0, i64 0
  %76 = load i32, i32* %3, align 4
  %77 = sext i32 %76 to i64
  %78 = getelementptr inbounds [5 x i8], [5 x i8]* %75, i64 %77
  %79 = getelementptr inbounds [5 x i8], [5 x i8]* %78, i64 0, i64 0
  %80 = getelementptr inbounds [501 x [5 x i8]], [501 x [5 x i8]]* %8, i64 0, i64 0
  %81 = load i32, i32* %4, align 4
  %82 = sext i32 %81 to i64
  %83 = getelementptr inbounds [5 x i8], [5 x i8]* %80, i64 %82
  %84 = getelementptr inbounds [5 x i8], [5 x i8]* %83, i64 0, i64 0
  %85 = call i32 @strcmp(i8* %79, i8* %84) #4
  %86 = icmp eq i32 %85, 0
  br i1 %86, label %87, label %94

87:                                               ; preds = %74
  %88 = getelementptr inbounds [501 x i32], [501 x i32]* %9, i64 0, i64 0
  %89 = load i32, i32* %3, align 4
  %90 = sext i32 %89 to i64
  %91 = getelementptr inbounds i32, i32* %88, i64 %90
  %92 = load i32, i32* %91, align 4
  %93 = add nsw i32 %92, 1
  store i32 %93, i32* %91, align 4
  br label %94

94:                                               ; preds = %87, %74
  br label %95

95:                                               ; preds = %94
  %96 = load i32, i32* %4, align 4
  %97 = add nsw i32 %96, 1
  store i32 %97, i32* %4, align 4
  br label %68

98:                                               ; preds = %68
  br label %99

99:                                               ; preds = %98
  %100 = load i32, i32* %3, align 4
  %101 = add nsw i32 %100, 1
  store i32 %101, i32* %3, align 4
  br label %61

102:                                              ; preds = %61
  store i32 0, i32* %3, align 4
  br label %103

103:                                              ; preds = %124, %102
  %104 = load i32, i32* %3, align 4
  %105 = load i32, i32* %2, align 4
  %106 = load i32, i32* %5, align 4
  %107 = sub nsw i32 %105, %106
  %108 = icmp sle i32 %104, %107
  br i1 %108, label %109, label %127

109:                                              ; preds = %103
  %110 = load i32, i32* %6, align 4
  %111 = getelementptr inbounds [501 x i32], [501 x i32]* %9, i64 0, i64 0
  %112 = load i32, i32* %3, align 4
  %113 = sext i32 %112 to i64
  %114 = getelementptr inbounds i32, i32* %111, i64 %113
  %115 = load i32, i32* %114, align 4
  %116 = icmp slt i32 %110, %115
  br i1 %116, label %117, label %123

117:                                              ; preds = %109
  %118 = getelementptr inbounds [501 x i32], [501 x i32]* %9, i64 0, i64 0
  %119 = load i32, i32* %3, align 4
  %120 = sext i32 %119 to i64
  %121 = getelementptr inbounds i32, i32* %118, i64 %120
  %122 = load i32, i32* %121, align 4
  store i32 %122, i32* %6, align 4
  br label %123

123:                                              ; preds = %117, %109
  br label %124

124:                                              ; preds = %123
  %125 = load i32, i32* %3, align 4
  %126 = add nsw i32 %125, 1
  store i32 %126, i32* %3, align 4
  br label %103

127:                                              ; preds = %103
  %128 = load i32, i32* %6, align 4
  %129 = icmp sle i32 %128, 1
  br i1 %129, label %130, label %132

130:                                              ; preds = %127
  %131 = call i32 (i8*, ...) @printf(i8* getelementptr inbounds ([4 x i8], [4 x i8]* @.str.2, i64 0, i64 0))
  br label %199

132:                                              ; preds = %127
  store i32 0, i32* %3, align 4
  br label %133

133:                                              ; preds = %167, %132
  %134 = load i32, i32* %3, align 4
  %135 = load i32, i32* %2, align 4
  %136 = load i32, i32* %5, align 4
  %137 = sub nsw i32 %135, %136
  %138 = icmp sle i32 %134, %137
  br i1 %138, label %139, label %170

139:                                              ; preds = %133
  store i32 0, i32* %4, align 4
  br label %140

140:                                              ; preds = %163, %139
  %141 = load i32, i32* %4, align 4
  %142 = load i32, i32* %3, align 4
  %143 = icmp slt i32 %141, %142
  br i1 %143, label %144, label %166

144:                                              ; preds = %140
  %145 = getelementptr inbounds [501 x [5 x i8]], [501 x [5 x i8]]* %8, i64 0, i64 0
  %146 = load i32, i32* %3, align 4
  %147 = sext i32 %146 to i64
  %148 = getelementptr inbounds [5 x i8], [5 x i8]* %145, i64 %147
  %149 = getelementptr inbounds [5 x i8], [5 x i8]* %148, i64 0, i64 0
  %150 = getelementptr inbounds [501 x [5 x i8]], [501 x [5 x i8]]* %8, i64 0, i64 0
  %151 = load i32, i32* %4, align 4
  %152 = sext i32 %151 to i64
  %153 = getelementptr inbounds [5 x i8], [5 x i8]* %150, i64 %152
  %154 = getelementptr inbounds [5 x i8], [5 x i8]* %153, i64 0, i64 0
  %155 = call i32 @strcmp(i8* %149, i8* %154) #4
  %156 = icmp eq i32 %155, 0
  br i1 %156, label %157, label %162

157:                                              ; preds = %144
  %158 = getelementptr inbounds [501 x i32], [501 x i32]* %9, i64 0, i64 0
  %159 = load i32, i32* %3, align 4
  %160 = sext i32 %159 to i64
  %161 = getelementptr inbounds i32, i32* %158, i64 %160
  store i32 0, i32* %161, align 4
  br label %162

162:                                              ; preds = %157, %144
  br label %163

163:                                              ; preds = %162
  %164 = load i32, i32* %4, align 4
  %165 = add nsw i32 %164, 1
  store i32 %165, i32* %4, align 4
  br label %140

166:                                              ; preds = %140
  br label %167

167:                                              ; preds = %166
  %168 = load i32, i32* %3, align 4
  %169 = add nsw i32 %168, 1
  store i32 %169, i32* %3, align 4
  br label %133

170:                                              ; preds = %133
  %171 = load i32, i32* %6, align 4
  %172 = call i32 (i8*, ...) @printf(i8* getelementptr inbounds ([4 x i8], [4 x i8]* @.str.3, i64 0, i64 0), i32 %171)
  store i32 0, i32* %3, align 4
  br label %173

173:                                              ; preds = %195, %170
  %174 = load i32, i32* %3, align 4
  %175 = load i32, i32* %2, align 4
  %176 = load i32, i32* %5, align 4
  %177 = sub nsw i32 %175, %176
  %178 = icmp sle i32 %174, %177
  br i1 %178, label %179, label %198

179:                                              ; preds = %173
  %180 = getelementptr inbounds [501 x i32], [501 x i32]* %9, i64 0, i64 0
  %181 = load i32, i32* %3, align 4
  %182 = sext i32 %181 to i64
  %183 = getelementptr inbounds i32, i32* %180, i64 %182
  %184 = load i32, i32* %183, align 4
  %185 = load i32, i32* %6, align 4
  %186 = icmp eq i32 %184, %185
  br i1 %186, label %187, label %194

187:                                              ; preds = %179
  %188 = getelementptr inbounds [501 x [5 x i8]], [501 x [5 x i8]]* %8, i64 0, i64 0
  %189 = load i32, i32* %3, align 4
  %190 = sext i32 %189 to i64
  %191 = getelementptr inbounds [5 x i8], [5 x i8]* %188, i64 %190
  %192 = getelementptr inbounds [5 x i8], [5 x i8]* %191, i64 0, i64 0
  %193 = call i32 (i8*, ...) @printf(i8* getelementptr inbounds ([4 x i8], [4 x i8]* @.str.4, i64 0, i64 0), i8* %192)
  br label %194

194:                                              ; preds = %187, %179
  br label %195

195:                                              ; preds = %194
  %196 = load i32, i32* %3, align 4
  %197 = add nsw i32 %196, 1
  store i32 %197, i32* %3, align 4
  br label %173

198:                                              ; preds = %173
  br label %199

199:                                              ; preds = %198, %130
  ret i32 0
}