; Function Attrs: nofree nounwind sspstrong uwtable
define dso_local i32 @main() local_unnamed_addr #0 {
  %1 = alloca i32, align 4
  %2 = alloca [501 x i8], align 16
  %3 = alloca [501 x [5 x i8]], align 16
  %4 = alloca [501 x i32], align 16
  %5 = bitcast i32* %1 to i8*
  call void @llvm.lifetime.start.p0i8(i64 4, i8* nonnull %5) #8
  %6 = getelementptr inbounds [501 x i8], [501 x i8]* %2, i64 0, i64 0
  call void @llvm.lifetime.start.p0i8(i64 501, i8* nonnull %6) #8
  %7 = getelementptr inbounds [501 x [5 x i8]], [501 x [5 x i8]]* %3, i64 0, i64 0, i64 0
  call void @llvm.lifetime.start.p0i8(i64 2505, i8* nonnull %7) #8
  %8 = bitcast [501 x i32]* %4 to i8*
  call void @llvm.lifetime.start.p0i8(i64 2004, i8* nonnull %8) #8
  call void @llvm.memset.p0i8.i64(i8* noundef nonnull align 16 dereferenceable(2004) %8, i8 0, i64 2004, i1 false)
  %9 = call i32 (i8*, ...) @__isoc99_scanf(i8* getelementptr inbounds ([3 x i8], [3 x i8]* @.str, i64 0, i64 0), i32* nonnull %1)
  %10 = call i32 (i8*, ...) @__isoc99_scanf(i8* getelementptr inbounds ([3 x i8], [3 x i8]* @.str.1, i64 0, i64 0), i8* nonnull %6)
  %11 = call i64 @strlen(i8* noundef nonnull %6) #9
  %12 = trunc i64 %11 to i32
  %13 = load i32, i32* %1, align 4, !tbaa !5
  %14 = icmp sgt i32 %13, %12
  br i1 %14, label %191, label %15

15:                                               ; preds = %0
  %16 = icmp sgt i32 %13, 0
  br i1 %16, label %26, label %17

17:                                               ; preds = %15
  %18 = add i32 %12, 1
  %19 = sub i32 %18, %13
  %20 = zext i32 %19 to i64
  %21 = add nsw i64 %20, -1
  %22 = and i64 %20, 3
  %23 = icmp ult i64 %21, 3
  br i1 %23, label %69, label %24

24:                                               ; preds = %17
  %25 = and i64 %20, 4294967292
  br label %49

26:                                               ; preds = %15
  %27 = zext i32 %13 to i64
  %28 = add i32 %12, 1
  %29 = sub i32 %28, %13
  %30 = zext i32 %29 to i64
  %31 = zext i32 %13 to i64
  %32 = and i64 %30, 1
  %33 = icmp eq i32 %29, 1
  br i1 %33, label %62, label %34

34:                                               ; preds = %26
  %35 = and i64 %30, 4294967294
  br label %36

36:                                               ; preds = %36, %34
  %37 = phi i64 [ 0, %34 ], [ %46, %36 ]
  %38 = phi i64 [ %35, %34 ], [ %47, %36 ]
  %39 = getelementptr [501 x [5 x i8]], [501 x [5 x i8]]* %3, i64 0, i64 %37, i64 0
  %40 = getelementptr [501 x i8], [501 x i8]* %2, i64 0, i64 %37
  call void @llvm.memcpy.p0i8.p0i8.i64(i8* align 2 %39, i8* align 2 %40, i64 %27, i1 false)
  %41 = getelementptr inbounds [501 x [5 x i8]], [501 x [5 x i8]]* %3, i64 0, i64 %37, i64 %31
  store i8 0, i8* %41, align 1, !tbaa !9
  %42 = or i64 %37, 1
  %43 = getelementptr [501 x [5 x i8]], [501 x [5 x i8]]* %3, i64 0, i64 %42, i64 0
  %44 = getelementptr [501 x i8], [501 x i8]* %2, i64 0, i64 %42
  call void @llvm.memcpy.p0i8.p0i8.i64(i8* align 1 %43, i8* align 1 %44, i64 %27, i1 false)
  %45 = getelementptr inbounds [501 x [5 x i8]], [501 x [5 x i8]]* %3, i64 0, i64 %42, i64 %31
  store i8 0, i8* %45, align 1, !tbaa !9
  %46 = add nuw nsw i64 %37, 2
  %47 = add i64 %38, -2
  %48 = icmp eq i64 %47, 0
  br i1 %48, label %62, label %36, !llvm.loop !10

49:                                               ; preds = %49, %24
  %50 = phi i64 [ 0, %24 ], [ %59, %49 ]
  %51 = phi i64 [ %25, %24 ], [ %60, %49 ]
  %52 = getelementptr inbounds [501 x [5 x i8]], [501 x [5 x i8]]* %3, i64 0, i64 %50, i64 0
  store i8 0, i8* %52, align 4, !tbaa !9
  %53 = or i64 %50, 1
  %54 = getelementptr inbounds [501 x [5 x i8]], [501 x [5 x i8]]* %3, i64 0, i64 %53, i64 0
  store i8 0, i8* %54, align 1, !tbaa !9
  %55 = or i64 %50, 2
  %56 = getelementptr inbounds [501 x [5 x i8]], [501 x [5 x i8]]* %3, i64 0, i64 %55, i64 0
  store i8 0, i8* %56, align 2, !tbaa !9
  %57 = or i64 %50, 3
  %58 = getelementptr inbounds [501 x [5 x i8]], [501 x [5 x i8]]* %3, i64 0, i64 %57, i64 0
  store i8 0, i8* %58, align 1, !tbaa !9
  %59 = add nuw nsw i64 %50, 4
  %60 = add i64 %51, -4
  %61 = icmp eq i64 %60, 0
  br i1 %61, label %69, label %49, !llvm.loop !10

62:                                               ; preds = %36, %26
  %63 = phi i64 [ 0, %26 ], [ %46, %36 ]
  %64 = icmp eq i64 %32, 0
  br i1 %64, label %79, label %65

65:                                               ; preds = %62
  %66 = getelementptr [501 x [5 x i8]], [501 x [5 x i8]]* %3, i64 0, i64 %63, i64 0
  %67 = getelementptr [501 x i8], [501 x i8]* %2, i64 0, i64 %63
  call void @llvm.memcpy.p0i8.p0i8.i64(i8* align 1 %66, i8* align 1 %67, i64 %27, i1 false)
  %68 = getelementptr inbounds [501 x [5 x i8]], [501 x [5 x i8]]* %3, i64 0, i64 %63, i64 %31
  store i8 0, i8* %68, align 1, !tbaa !9
  br label %79

69:                                               ; preds = %49, %17
  %70 = phi i64 [ 0, %17 ], [ %59, %49 ]
  %71 = icmp eq i64 %22, 0
  br i1 %71, label %79, label %72

72:                                               ; preds = %69, %72
  %73 = phi i64 [ %76, %72 ], [ %70, %69 ]
  %74 = phi i64 [ %77, %72 ], [ %22, %69 ]
  %75 = getelementptr inbounds [501 x [5 x i8]], [501 x [5 x i8]]* %3, i64 0, i64 %73, i64 0
  store i8 0, i8* %75, align 1, !tbaa !9
  %76 = add nuw nsw i64 %73, 1
  %77 = add i64 %74, -1
  %78 = icmp eq i64 %77, 0
  br i1 %78, label %79, label %72, !llvm.loop !12

79:                                               ; preds = %69, %72, %65, %62
  br i1 %14, label %191, label %80

80:                                               ; preds = %79
  %81 = add i32 %12, 1
  %82 = sub i32 %81, %13
  %83 = zext i32 %82 to i64
  br label %84

84:                                               ; preds = %80, %171
  %85 = phi i64 [ 0, %80 ], [ %172, %171 ]
  %86 = getelementptr inbounds [501 x [5 x i8]], [501 x [5 x i8]]* %3, i64 0, i64 %85, i64 0
  %87 = getelementptr inbounds [501 x i32], [501 x i32]* %4, i64 0, i64 %85
  br label %160

88:                                               ; preds = %171
  br i1 %14, label %191, label %89

89:                                               ; preds = %88
  %90 = add i32 %12, 1
  %91 = sub i32 %90, %13
  %92 = zext i32 %91 to i64
  %93 = icmp ult i32 %91, 8
  br i1 %93, label %157, label %94

94:                                               ; preds = %89
  %95 = and i64 %92, 4294967288
  %96 = add nsw i64 %95, -8
  %97 = lshr exact i64 %96, 3
  %98 = add nuw nsw i64 %97, 1
  %99 = and i64 %98, 1
  %100 = icmp eq i64 %96, 0
  br i1 %100, label %132, label %101

101:                                              ; preds = %94
  %102 = and i64 %98, 4611686018427387902
  br label %103

103:                                              ; preds = %103, %101
  %104 = phi i64 [ 0, %101 ], [ %129, %103 ]
  %105 = phi <4 x i32> [ zeroinitializer, %101 ], [ %127, %103 ]
  %106 = phi <4 x i32> [ zeroinitializer, %101 ], [ %128, %103 ]
  %107 = phi i64 [ %102, %101 ], [ %130, %103 ]
  %108 = getelementptr inbounds [501 x i32], [501 x i32]* %4, i64 0, i64 %104
  %109 = bitcast i32* %108 to <4 x i32>*
  %110 = load <4 x i32>, <4 x i32>* %109, align 16, !tbaa !5
  %111 = getelementptr inbounds i32, i32* %108, i64 4
  %112 = bitcast i32* %111 to <4 x i32>*
  %113 = load <4 x i32>, <4 x i32>* %112, align 16, !tbaa !5
  %114 = icmp slt <4 x i32> %105, %110
  %115 = icmp slt <4 x i32> %106, %113
  %116 = select <4 x i1> %114, <4 x i32> %110, <4 x i32> %105
  %117 = select <4 x i1> %115, <4 x i32> %113, <4 x i32> %106
  %118 = or i64 %104, 8
  %119 = getelementptr inbounds [501 x i32], [501 x i32]* %4, i64 0, i64 %118
  %120 = bitcast i32* %119 to <4 x i32>*
  %121 = load <4 x i32>, <4 x i32>* %120, align 16, !tbaa !5
  %122 = getelementptr inbounds i32, i32* %119, i64 4
  %123 = bitcast i32* %122 to <4 x i32>*
  %124 = load <4 x i32>, <4 x i32>* %123, align 16, !tbaa !5
  %125 = icmp slt <4 x i32> %116, %121
  %126 = icmp slt <4 x i32> %117, %124
  %127 = select <4 x i1> %125, <4 x i32> %121, <4 x i32> %116
  %128 = select <4 x i1> %126, <4 x i32> %124, <4 x i32> %117
  %129 = add nuw i64 %104, 16
  %130 = add i64 %107, -2
  %131 = icmp eq i64 %130, 0
  br i1 %131, label %132, label %103, !llvm.loop !14

132:                                              ; preds = %103, %94
  %133 = phi <4 x i32> [ undef, %94 ], [ %127, %103 ]
  %134 = phi <4 x i32> [ undef, %94 ], [ %128, %103 ]
  %135 = phi i64 [ 0, %94 ], [ %129, %103 ]
  %136 = phi <4 x i32> [ zeroinitializer, %94 ], [ %127, %103 ]
  %137 = phi <4 x i32> [ zeroinitializer, %94 ], [ %128, %103 ]
  %138 = icmp eq i64 %99, 0
  br i1 %138, label %150, label %139

139:                                              ; preds = %132
  %140 = getelementptr inbounds [501 x i32], [501 x i32]* %4, i64 0, i64 %135
  %141 = bitcast i32* %140 to <4 x i32>*
  %142 = load <4 x i32>, <4 x i32>* %141, align 16, !tbaa !5
  %143 = getelementptr inbounds i32, i32* %140, i64 4
  %144 = bitcast i32* %143 to <4 x i32>*
  %145 = load <4 x i32>, <4 x i32>* %144, align 16, !tbaa !5
  %146 = icmp slt <4 x i32> %137, %145
  %147 = select <4 x i1> %146, <4 x i32> %145, <4 x i32> %137
  %148 = icmp slt <4 x i32> %136, %142
  %149 = select <4 x i1> %148, <4 x i32> %142, <4 x i32> %136
  br label %150

150:                                              ; preds = %132, %139
  %151 = phi <4 x i32> [ %133, %132 ], [ %149, %139 ]
  %152 = phi <4 x i32> [ %134, %132 ], [ %147, %139 ]
  %153 = icmp sgt <4 x i32> %151, %152
  %154 = select <4 x i1> %153, <4 x i32> %151, <4 x i32> %152
  %155 = call i32 @llvm.vector.reduce.smax.v4i32(<4 x i32> %154)
  %156 = icmp eq i64 %95, %92
  br i1 %156, label %183, label %157

157:                                              ; preds = %89, %150
  %158 = phi i64 [ 0, %89 ], [ %95, %150 ]
  %159 = phi i32 [ 0, %89 ], [ %155, %150 ]
  br label %174

160:                                              ; preds = %84, %168
  %161 = phi i64 [ 0, %84 ], [ %169, %168 ]
  %162 = getelementptr inbounds [501 x [5 x i8]], [501 x [5 x i8]]* %3, i64 0, i64 %161, i64 0
  %163 = call i32 @strcmp(i8* noundef nonnull %86, i8* noundef nonnull %162) #9
  %164 = icmp eq i32 %163, 0
  br i1 %164, label %165, label %168

165:                                              ; preds = %160
  %166 = load i32, i32* %87, align 4, !tbaa !5
  %167 = add nsw i32 %166, 1
  store i32 %167, i32* %87, align 4, !tbaa !5
  br label %168

168:                                              ; preds = %160, %165
  %169 = add nuw nsw i64 %161, 1
  %170 = icmp eq i64 %169, %83
  br i1 %170, label %171, label %160, !llvm.loop !16

171:                                              ; preds = %168
  %172 = add nuw nsw i64 %85, 1
  %173 = icmp eq i64 %172, %83
  br i1 %173, label %88, label %84, !llvm.loop !17

174:                                              ; preds = %157, %174
  %175 = phi i64 [ %181, %174 ], [ %158, %157 ]
  %176 = phi i32 [ %180, %174 ], [ %159, %157 ]
  %177 = getelementptr inbounds [501 x i32], [501 x i32]* %4, i64 0, i64 %175
  %178 = load i32, i32* %177, align 4, !tbaa !5
  %179 = icmp slt i32 %176, %178
  %180 = select i1 %179, i32 %178, i32 %176
  %181 = add nuw nsw i64 %175, 1
  %182 = icmp eq i64 %181, %92
  br i1 %182, label %183, label %174, !llvm.loop !18

183:                                              ; preds = %174, %150
  %184 = phi i32 [ %155, %150 ], [ %180, %174 ]
  %185 = icmp slt i32 %184, 2
  br i1 %185, label %191, label %186

186:                                              ; preds = %183
  br i1 %14, label %210, label %187

187:                                              ; preds = %186
  %188 = add i32 %12, 1
  %189 = sub i32 %188, %13
  %190 = zext i32 %189 to i64
  br label %193

191:                                              ; preds = %0, %79, %88, %183
  %192 = call i32 @puts(i8* nonnull dereferenceable(1) getelementptr inbounds ([3 x i8], [3 x i8]* @str, i64 0, i64 0))
  br label %230

193:                                              ; preds = %187, %207
  %194 = phi i64 [ 0, %187 ], [ %208, %207 ]
  %195 = getelementptr inbounds [501 x [5 x i8]], [501 x [5 x i8]]* %3, i64 0, i64 %194, i64 0
  %196 = getelementptr inbounds [501 x i32], [501 x i32]* %4, i64 0, i64 %194
  %197 = icmp eq i64 %194, 0
  br i1 %197, label %207, label %198

198:                                              ; preds = %193, %204
  %199 = phi i64 [ %205, %204 ], [ 0, %193 ]
  %200 = getelementptr inbounds [501 x [5 x i8]], [501 x [5 x i8]]* %3, i64 0, i64 %199, i64 0
  %201 = call i32 @strcmp(i8* noundef nonnull %195, i8* noundef nonnull %200) #9
  %202 = icmp eq i32 %201, 0
  br i1 %202, label %203, label %204

203:                                              ; preds = %198
  store i32 0, i32* %196, align 4, !tbaa !5
  br label %204

204:                                              ; preds = %198, %203
  %205 = add nuw nsw i64 %199, 1
  %206 = icmp eq i64 %205, %194
  br i1 %206, label %207, label %198, !llvm.loop !20

207:                                              ; preds = %204, %193
  %208 = add nuw nsw i64 %194, 1
  %209 = icmp eq i64 %208, %190
  br i1 %209, label %210, label %193, !llvm.loop !21

210:                                              ; preds = %207, %186
  %211 = call i32 (i8*, ...) @printf(i8* nonnull dereferenceable(1) getelementptr inbounds ([4 x i8], [4 x i8]* @.str.3, i64 0, i64 0), i32 %184)
  %212 = load i32, i32* %1, align 4, !tbaa !5
  %213 = icmp sgt i32 %212, %12
  br i1 %213, label %230, label %214

214:                                              ; preds = %210, %224
  %215 = phi i32 [ %225, %224 ], [ %212, %210 ]
  %216 = phi i64 [ %226, %224 ], [ 0, %210 ]
  %217 = getelementptr inbounds [501 x i32], [501 x i32]* %4, i64 0, i64 %216
  %218 = load i32, i32* %217, align 4, !tbaa !5
  %219 = icmp eq i32 %218, %184
  br i1 %219, label %220, label %224

220:                                              ; preds = %214
  %221 = getelementptr inbounds [501 x [5 x i8]], [501 x [5 x i8]]* %3, i64 0, i64 %216, i64 0
  %222 = call i32 @puts(i8* nonnull %221)
  %223 = load i32, i32* %1, align 4, !tbaa !5
  br label %224

224:                                              ; preds = %214, %220
  %225 = phi i32 [ %215, %214 ], [ %223, %220 ]
  %226 = add nuw nsw i64 %216, 1
  %227 = sub nsw i32 %12, %225
  %228 = sext i32 %227 to i64
  %229 = icmp slt i64 %216, %228
  br i1 %229, label %214, label %230, !llvm.loop !22

230:                                              ; preds = %224, %210, %191
  call void @llvm.lifetime.end.p0i8(i64 2004, i8* nonnull %8) #8
  call void @llvm.lifetime.end.p0i8(i64 2505, i8* nonnull %7) #8
  call void @llvm.lifetime.end.p0i8(i64 501, i8* nonnull %6) #8
  call void @llvm.lifetime.end.p0i8(i64 4, i8* nonnull %5) #8
  ret i32 0
}